; Function Attrs: mustprogress uwtable
define void @_Z7SetNamePwPKwm(ptr noundef %0, ptr noundef %1, i64 noundef %2) local_unnamed_addr #3 {
  %4 = tail call i64 @wcslen(ptr noundef readonly %0) #18
  %5 = and i64 %4, 4294967295
  br label %6

6:                                                ; preds = %9, %3
  %indvars.iv.i = phi i64 [ %10, %9 ], [ %5, %3 ]
  %7 = trunc nuw i64 %indvars.iv.i to i32
  %8 = icmp sgt i32 %7, 0
  br i1 %8, label %9, label %_Z11PointToNamePKw.exit

9:                                                ; preds = %6
  %10 = add nsw i64 %indvars.iv.i, -1
  %11 = getelementptr inbounds nuw i32, ptr %0, i64 %10
  %12 = load i32, ptr %11, align 4
  %13 = icmp eq i32 %12, 47
  br i1 %13, label %14, label %6, !llvm.loop !4

14:                                               ; preds = %9
  %15 = getelementptr inbounds nuw i32, ptr %0, i64 %indvars.iv.i
  br label %_Z11PointToNamePKw.exit

_Z11PointToNamePKw.exit:                          ; preds = %6, %14
  %.011.i = phi ptr [ %15, %14 ], [ %0, %6 ]
  %16 = ptrtoint ptr %.011.i to i64
  %17 = ptrtoint ptr %0 to i64
  %18 = sub i64 %16, %17
  %19 = ashr exact i64 %18, 2
  %20 = sub i64 %2, %19
  tail call void @_Z8wcsncpyzPwPKwm(ptr noundef %.011.i, ptr noundef %1, i64 noundef %20)
  ret void
}